target datalayout = "e-m:e-p270:32:32-p271:32:32-p272:64:64-i64:64-i128:128-f80:128-n8:16:32:64-S128"
target triple = "x86_64-pc-linux-gnu"

%"class.std::__cxx11::basic_string" = type { %"struct.std::__cxx11::basic_string<char>::_Alloc_hider", i64, %union.anon }
%"struct.std::__cxx11::basic_string<char>::_Alloc_hider" = type { ptr }
%union.anon = type { i64, [8 x i8] }
%"class.std::vector.211" = type { %"struct.std::_Vector_base.212" }
%"struct.std::_Vector_base.212" = type { %"struct.std::_Vector_base<std::__cxx11::basic_string<char>, std::allocator<std::__cxx11::basic_string<char>>>::_Vector_impl" }
%"struct.std::_Vector_base<std::__cxx11::basic_string<char>, std::allocator<std::__cxx11::basic_string<char>>>::_Vector_impl" = type { %"struct.std::_Vector_base<std::__cxx11::basic_string<char>, std::allocator<std::__cxx11::basic_string<char>>>::_Vector_impl_data" }
%"struct.std::_Vector_base<std::__cxx11::basic_string<char>, std::allocator<std::__cxx11::basic_string<char>>>::_Vector_impl_data" = type { ptr, ptr, ptr }
%class.cmNinjaTargetGenerator = type { %class.cmCommonTargetGenerator, %"class.std::unique_ptr.221", %"class.std::set", ptr, i8, %"class.std::map.229" }
%class.cmCommonTargetGenerator = type { ptr, ptr, ptr, ptr, ptr, %"class.std::vector.211", i8, %"class.std::map.216" }
%"class.std::map.216" = type { %"class.std::_Rb_tree.217" }
%"class.std::_Rb_tree.217" = type { %"struct.std::_Rb_tree<std::__cxx11::basic_string<char>, std::pair<const std::__cxx11::basic_string<char>, cmCommonTargetGenerator::ByConfig>, std::_Select1st<std::pair<const std::__cxx11::basic_string<char>, cmCommonTargetGenerator::ByConfig>>, std::less<std::__cxx11::basic_string<char>>>::_Rb_tree_impl" }
%"struct.std::_Rb_tree<std::__cxx11::basic_string<char>, std::pair<const std::__cxx11::basic_string<char>, cmCommonTargetGenerator::ByConfig>, std::_Select1st<std::pair<const std::__cxx11::basic_string<char>, cmCommonTargetGenerator::ByConfig>>, std::less<std::__cxx11::basic_string<char>>>::_Rb_tree_impl" = type { %"struct.std::_Rb_tree_key_compare.10", %"struct.std::_Rb_tree_header" }
%"struct.std::_Rb_tree_key_compare.10" = type { %"struct.std::less.11" }
%"struct.std::less.11" = type { i8 }
%"struct.std::_Rb_tree_header" = type { %"struct.std::_Rb_tree_node_base", i64 }
%"struct.std::_Rb_tree_node_base" = type { i32, ptr, ptr, ptr }
%"class.std::unique_ptr.221" = type { %"struct.std::__uniq_ptr_data.222" }
%"struct.std::__uniq_ptr_data.222" = type { %"class.std::__uniq_ptr_impl.223" }
%"class.std::__uniq_ptr_impl.223" = type { %"class.std::tuple.224" }
%"class.std::tuple.224" = type { %"struct.std::_Tuple_impl.225" }
%"struct.std::_Tuple_impl.225" = type { %"struct.std::_Head_base.228" }
%"struct.std::_Head_base.228" = type { ptr }
%"class.std::set" = type { %"class.std::_Rb_tree.21" }
%"class.std::_Rb_tree.21" = type { %"struct.std::_Rb_tree<std::__cxx11::basic_string<char>, std::__cxx11::basic_string<char>, std::_Identity<std::__cxx11::basic_string<char>>, std::less<std::__cxx11::basic_string<char>>>::_Rb_tree_impl" }
%"struct.std::_Rb_tree<std::__cxx11::basic_string<char>, std::__cxx11::basic_string<char>, std::_Identity<std::__cxx11::basic_string<char>>, std::less<std::__cxx11::basic_string<char>>>::_Rb_tree_impl" = type { %"struct.std::_Rb_tree_key_compare.10", %"struct.std::_Rb_tree_header" }
%"class.std::map.229" = type { %"class.std::_Rb_tree.230" }
%"class.std::_Rb_tree.230" = type { %"struct.std::_Rb_tree<std::__cxx11::basic_string<char>, std::pair<const std::__cxx11::basic_string<char>, cmNinjaTargetGenerator::ByConfig>, std::_Select1st<std::pair<const std::__cxx11::basic_string<char>, cmNinjaTargetGenerator::ByConfig>>, std::less<std::__cxx11::basic_string<char>>>::_Rb_tree_impl" }
%"struct.std::_Rb_tree<std::__cxx11::basic_string<char>, std::pair<const std::__cxx11::basic_string<char>, cmNinjaTargetGenerator::ByConfig>, std::_Select1st<std::pair<const std::__cxx11::basic_string<char>, cmNinjaTargetGenerator::ByConfig>>, std::less<std::__cxx11::basic_string<char>>>::_Rb_tree_impl" = type { %"struct.std::_Rb_tree_key_compare.10", %"struct.std::_Rb_tree_header" }
%"struct.std::__detail::_Hash_node_base" = type { ptr }
%"struct.std::__detail::_Prime_rehash_policy" = type { float, i64 }
%"class.std::map.50" = type { %"class.std::_Rb_tree.51" }
%"class.std::_Rb_tree.51" = type { %"struct.std::_Rb_tree<std::__cxx11::basic_string<char>, std::pair<const std::__cxx11::basic_string<char>, bool>, std::_Select1st<std::pair<const std::__cxx11::basic_string<char>, bool>>, std::less<std::__cxx11::basic_string<char>>>::_Rb_tree_impl" }
%"struct.std::_Rb_tree<std::__cxx11::basic_string<char>, std::pair<const std::__cxx11::basic_string<char>, bool>, std::_Select1st<std::pair<const std::__cxx11::basic_string<char>, bool>>, std::less<std::__cxx11::basic_string<char>>>::_Rb_tree_impl" = type { %"struct.std::_Rb_tree_key_compare.10", %"struct.std::_Rb_tree_header" }
%"class.std::unordered_set" = type { %"class.std::_Hashtable.122" }
%"class.std::_Hashtable.122" = type { ptr, i64, %"struct.std::__detail::_Hash_node_base", i64, %"struct.std::__detail::_Prime_rehash_policy", ptr }
%"class.std::map.117" = type { %"class.std::_Rb_tree.118" }
%"class.std::_Rb_tree.118" = type { %"struct.std::_Rb_tree<std::__cxx11::basic_string<char>, std::pair<const std::__cxx11::basic_string<char>, std::__cxx11::basic_string<char>>, std::_Select1st<std::pair<const std::__cxx11::basic_string<char>, std::__cxx11::basic_string<char>>>, std::less<std::__cxx11::basic_string<char>>>::_Rb_tree_impl" }
%"struct.std::_Rb_tree<std::__cxx11::basic_string<char>, std::pair<const std::__cxx11::basic_string<char>, std::__cxx11::basic_string<char>>, std::_Select1st<std::pair<const std::__cxx11::basic_string<char>, std::__cxx11::basic_string<char>>>, std::less<std::__cxx11::basic_string<char>>>::_Rb_tree_impl" = type { %"struct.std::_Rb_tree_key_compare.10", %"struct.std::_Rb_tree_header" }
%"class.std::chrono::duration" = type { double }
%"class.std::vector.490" = type { %"struct.std::_Vector_base.491" }
%"struct.std::_Vector_base.491" = type { %"struct.std::_Vector_base<std::unique_ptr<cmMakefile>, std::allocator<std::unique_ptr<cmMakefile>>>::_Vector_impl" }
%"struct.std::_Vector_base<std::unique_ptr<cmMakefile>, std::allocator<std::unique_ptr<cmMakefile>>>::_Vector_impl" = type { %"struct.std::_Vector_base<std::unique_ptr<cmMakefile>, std::allocator<std::unique_ptr<cmMakefile>>>::_Vector_impl_data" }
%"struct.std::_Vector_base<std::unique_ptr<cmMakefile>, std::allocator<std::unique_ptr<cmMakefile>>>::_Vector_impl_data" = type { ptr, ptr, ptr }
%"class.std::vector.495" = type { %"struct.std::_Vector_base.496" }
%"struct.std::_Vector_base.496" = type { %"struct.std::_Vector_base<std::unique_ptr<cmLocalGenerator>, std::allocator<std::unique_ptr<cmLocalGenerator>>>::_Vector_impl" }
%"struct.std::_Vector_base<std::unique_ptr<cmLocalGenerator>, std::allocator<std::unique_ptr<cmLocalGenerator>>>::_Vector_impl" = type { %"struct.std::_Vector_base<std::unique_ptr<cmLocalGenerator>, std::allocator<std::unique_ptr<cmLocalGenerator>>>::_Vector_impl_data" }
%"struct.std::_Vector_base<std::unique_ptr<cmLocalGenerator>, std::allocator<std::unique_ptr<cmLocalGenerator>>>::_Vector_impl_data" = type { ptr, ptr, ptr }
%"class.std::unique_ptr.500" = type { %"struct.std::__uniq_ptr_data.501" }
%"struct.std::__uniq_ptr_data.501" = type { %"class.std::__uniq_ptr_impl.502" }
%"class.std::__uniq_ptr_impl.502" = type { %"class.std::tuple.503" }
%"class.std::tuple.503" = type { %"struct.std::_Tuple_impl.504" }
%"struct.std::_Tuple_impl.504" = type { %"struct.std::_Head_base.507" }
%"struct.std::_Head_base.507" = type { ptr }
%"class.std::map.508" = type { %"class.std::_Rb_tree.509" }
%"class.std::_Rb_tree.509" = type { %"struct.std::_Rb_tree<std::__cxx11::basic_string<char>, std::pair<const std::__cxx11::basic_string<char>, std::vector<cmLocalGenerator *>>, std::_Select1st<std::pair<const std::__cxx11::basic_string<char>, std::vector<cmLocalGenerator *>>>, std::less<std::__cxx11::basic_string<char>>>::_Rb_tree_impl" }
%"struct.std::_Rb_tree<std::__cxx11::basic_string<char>, std::pair<const std::__cxx11::basic_string<char>, std::vector<cmLocalGenerator *>>, std::_Select1st<std::pair<const std::__cxx11::basic_string<char>, std::vector<cmLocalGenerator *>>>, std::less<std::__cxx11::basic_string<char>>>::_Rb_tree_impl" = type { %"struct.std::_Rb_tree_key_compare.10", %"struct.std::_Rb_tree_header" }
%class.cmExportSetMap = type { %"class.std::map.513" }
%"class.std::map.513" = type { %"class.std::_Rb_tree.514" }
%"class.std::_Rb_tree.514" = type { %"struct.std::_Rb_tree<std::__cxx11::basic_string<char>, std::pair<const std::__cxx11::basic_string<char>, cmExportSet>, std::_Select1st<std::pair<const std::__cxx11::basic_string<char>, cmExportSet>>, std::less<std::__cxx11::basic_string<char>>>::_Rb_tree_impl" }
%"struct.std::_Rb_tree<std::__cxx11::basic_string<char>, std::pair<const std::__cxx11::basic_string<char>, cmExportSet>, std::_Select1st<std::pair<const std::__cxx11::basic_string<char>, cmExportSet>>, std::less<std::__cxx11::basic_string<char>>>::_Rb_tree_impl" = type { %"struct.std::_Rb_tree_key_compare.10", %"struct.std::_Rb_tree_header" }
%"class.std::map.518" = type { %"class.std::_Rb_tree.519" }
%"class.std::_Rb_tree.519" = type { %"struct.std::_Rb_tree<std::__cxx11::basic_string<char>, std::pair<const std::__cxx11::basic_string<char>, cmExportBuildFileGenerator *>, std::_Select1st<std::pair<const std::__cxx11::basic_string<char>, cmExportBuildFileGenerator *>>, std::less<std::__cxx11::basic_string<char>>>::_Rb_tree_impl" }
%"struct.std::_Rb_tree<std::__cxx11::basic_string<char>, std::pair<const std::__cxx11::basic_string<char>, cmExportBuildFileGenerator *>, std::_Select1st<std::pair<const std::__cxx11::basic_string<char>, cmExportBuildFileGenerator *>>, std::less<std::__cxx11::basic_string<char>>>::_Rb_tree_impl" = type { %"struct.std::_Rb_tree_key_compare.10", %"struct.std::_Rb_tree_header" }
%"class.std::unordered_map.435" = type { %"class.std::_Hashtable.436" }
%"class.std::_Hashtable.436" = type { ptr, i64, %"struct.std::__detail::_Hash_node_base", i64, %"struct.std::__detail::_Prime_rehash_policy", ptr }
%"class.std::unordered_map.234" = type { %"class.std::_Hashtable.235" }
%"class.std::_Hashtable.235" = type { ptr, i64, %"struct.std::__detail::_Hash_node_base", i64, %"struct.std::__detail::_Prime_rehash_policy", ptr }
%"class.std::unordered_map.523" = type { %"class.std::_Hashtable.524" }
%"class.std::_Hashtable.524" = type { ptr, i64, %"struct.std::__detail::_Hash_node_base", i64, %"struct.std::__detail::_Prime_rehash_policy", ptr }
%"class.std::unordered_map.537" = type { %"class.std::_Hashtable.538" }
%"class.std::_Hashtable.538" = type { ptr, i64, %"struct.std::__detail::_Hash_node_base", i64, %"struct.std::__detail::_Prime_rehash_policy", ptr }
%"class.std::map.551" = type { %"class.std::_Rb_tree.552" }
%"class.std::_Rb_tree.552" = type { %"struct.std::_Rb_tree<const cmGeneratorTarget *, std::pair<const cmGeneratorTarget *const, unsigned long>, std::_Select1st<std::pair<const cmGeneratorTarget *const, unsigned long>>, std::less<const cmGeneratorTarget *>>::_Rb_tree_impl" }
%"struct.std::_Rb_tree<const cmGeneratorTarget *, std::pair<const cmGeneratorTarget *const, unsigned long>, std::_Select1st<std::pair<const cmGeneratorTarget *const, unsigned long>>, std::less<const cmGeneratorTarget *>>::_Rb_tree_impl" = type { %"struct.std::_Rb_tree_key_compare.258", %"struct.std::_Rb_tree_header" }
%"struct.std::_Rb_tree_key_compare.258" = type { %"struct.std::less.259" }
%"struct.std::less.259" = type { i8 }
%"class.std::map.556" = type { %"class.std::_Rb_tree.557" }
%"class.std::_Rb_tree.557" = type { %"struct.std::_Rb_tree<std::__cxx11::basic_string<char>, std::pair<const std::__cxx11::basic_string<char>, int>, std::_Select1st<std::pair<const std::__cxx11::basic_string<char>, int>>, std::less<std::__cxx11::basic_string<char>>>::_Rb_tree_impl" }
%"struct.std::_Rb_tree<std::__cxx11::basic_string<char>, std::pair<const std::__cxx11::basic_string<char>, int>, std::_Select1st<std::pair<const std::__cxx11::basic_string<char>, int>>, std::less<std::__cxx11::basic_string<char>>>::_Rb_tree_impl" = type { %"struct.std::_Rb_tree_key_compare.10", %"struct.std::_Rb_tree_header" }
%"class.std::map.561" = type { %"class.std::_Rb_tree.562" }
%"class.std::_Rb_tree.562" = type { %"struct.std::_Rb_tree<std::__cxx11::basic_string<char>, std::pair<const std::__cxx11::basic_string<char>, cmGlobalGenerator::RuleHash>, std::_Select1st<std::pair<const std::__cxx11::basic_string<char>, cmGlobalGenerator::RuleHash>>, std::less<std::__cxx11::basic_string<char>>>::_Rb_tree_impl" }
%"struct.std::_Rb_tree<std::__cxx11::basic_string<char>, std::pair<const std::__cxx11::basic_string<char>, cmGlobalGenerator::RuleHash>, std::_Select1st<std::pair<const std::__cxx11::basic_string<char>, cmGlobalGenerator::RuleHash>>, std::less<std::__cxx11::basic_string<char>>>::_Rb_tree_impl" = type { %"struct.std::_Rb_tree_key_compare.10", %"struct.std::_Rb_tree_header" }
%"class.std::unique_ptr.566" = type { %"struct.std::__uniq_ptr_data.567" }
%"struct.std::__uniq_ptr_data.567" = type { %"class.std::__uniq_ptr_impl.568" }
%"class.std::__uniq_ptr_impl.568" = type { %"class.std::tuple.569" }
%"class.std::tuple.569" = type { %"struct.std::_Tuple_impl.570" }
%"struct.std::_Tuple_impl.570" = type { %"struct.std::_Head_base.573" }
%"struct.std::_Head_base.573" = type { ptr }
%"class.std::map.574" = type { %"class.std::_Rb_tree.575" }
%"class.std::_Rb_tree.575" = type { %"struct.std::_Rb_tree<const cmGeneratorTarget *, std::pair<const cmGeneratorTarget *const, cmTargetDependSet>, std::_Select1st<std::pair<const cmGeneratorTarget *const, cmTargetDependSet>>, std::less<const cmGeneratorTarget *>>::_Rb_tree_impl" }
%"struct.std::_Rb_tree<const cmGeneratorTarget *, std::pair<const cmGeneratorTarget *const, cmTargetDependSet>, std::_Select1st<std::pair<const cmGeneratorTarget *const, cmTargetDependSet>>, std::less<const cmGeneratorTarget *>>::_Rb_tree_impl" = type { %"struct.std::_Rb_tree_key_compare.258", %"struct.std::_Rb_tree_header" }
%"class.std::map.579" = type { %"class.std::_Rb_tree.580" }
%"class.std::_Rb_tree.580" = type { %"struct.std::_Rb_tree<std::__cxx11::basic_string<char>, std::pair<const std::__cxx11::basic_string<char>, cmGlobalGenerator::DirectoryContent>, std::_Select1st<std::pair<const std::__cxx11::basic_string<char>, cmGlobalGenerator::DirectoryContent>>, std::less<std::__cxx11::basic_string<char>>>::_Rb_tree_impl" }
%"struct.std::_Rb_tree<std::__cxx11::basic_string<char>, std::pair<const std::__cxx11::basic_string<char>, cmGlobalGenerator::DirectoryContent>, std::_Select1st<std::pair<const std::__cxx11::basic_string<char>, cmGlobalGenerator::DirectoryContent>>, std::less<std::__cxx11::basic_string<char>>>::_Rb_tree_impl" = type { %"struct.std::_Rb_tree_key_compare.10", %"struct.std::_Rb_tree_header" }
%"class.std::map.584" = type { %"class.std::_Rb_tree.585" }
%"class.std::_Rb_tree.585" = type { %"struct.std::_Rb_tree<cmSourceFile *, std::pair<cmSourceFile *const, std::set<const cmGeneratorTarget *>>, std::_Select1st<std::pair<cmSourceFile *const, std::set<const cmGeneratorTarget *>>>, std::less<cmSourceFile *>>::_Rb_tree_impl" }
%"struct.std::_Rb_tree<cmSourceFile *, std::pair<cmSourceFile *const, std::set<const cmGeneratorTarget *>>, std::_Select1st<std::pair<cmSourceFile *const, std::set<const cmGeneratorTarget *>>>, std::less<cmSourceFile *>>::_Rb_tree_impl" = type { %"struct.std::_Rb_tree_key_compare.589", %"struct.std::_Rb_tree_header" }
%"struct.std::_Rb_tree_key_compare.589" = type { %"struct.std::less.590" }
%"struct.std::less.590" = type { i8 }
%"class.std::vector.592" = type { %"struct.std::_Vector_base.593" }
%"struct.std::_Vector_base.593" = type { %"struct.std::_Vector_base<std::unique_ptr<cmInstallRuntimeDependencySet>, std::allocator<std::unique_ptr<cmInstallRuntimeDependencySet>>>::_Vector_impl" }
%"struct.std::_Vector_base<std::unique_ptr<cmInstallRuntimeDependencySet>, std::allocator<std::unique_ptr<cmInstallRuntimeDependencySet>>>::_Vector_impl" = type { %"struct.std::_Vector_base<std::unique_ptr<cmInstallRuntimeDependencySet>, std::allocator<std::unique_ptr<cmInstallRuntimeDependencySet>>>::_Vector_impl_data" }
%"struct.std::_Vector_base<std::unique_ptr<cmInstallRuntimeDependencySet>, std::allocator<std::unique_ptr<cmInstallRuntimeDependencySet>>>::_Vector_impl_data" = type { ptr, ptr, ptr }
%"class.std::map.597" = type { %"class.std::_Rb_tree.598" }
%"class.std::_Rb_tree.598" = type { %"struct.std::_Rb_tree<std::__cxx11::basic_string<char>, std::pair<const std::__cxx11::basic_string<char>, cmInstallRuntimeDependencySet *>, std::_Select1st<std::pair<const std::__cxx11::basic_string<char>, cmInstallRuntimeDependencySet *>>, std::less<std::__cxx11::basic_string<char>>>::_Rb_tree_impl" }
%"struct.std::_Rb_tree<std::__cxx11::basic_string<char>, std::pair<const std::__cxx11::basic_string<char>, cmInstallRuntimeDependencySet *>, std::_Select1st<std::pair<const std::__cxx11::basic_string<char>, cmInstallRuntimeDependencySet *>>, std::less<std::__cxx11::basic_string<char>>>::_Rb_tree_impl" = type { %"struct.std::_Rb_tree_key_compare.10", %"struct.std::_Rb_tree_header" }
%class.cmFileLockPool = type { %"class.std::vector.602", %"class.std::vector.602", %"class.cmFileLockPool::ScopePool" }
%"class.std::vector.602" = type { %"struct.std::_Vector_base.603" }
%"struct.std::_Vector_base.603" = type { %"struct.std::_Vector_base<cmFileLockPool::ScopePool, std::allocator<cmFileLockPool::ScopePool>>::_Vector_impl" }
%"struct.std::_Vector_base<cmFileLockPool::ScopePool, std::allocator<cmFileLockPool::ScopePool>>::_Vector_impl" = type { %"struct.std::_Vector_base<cmFileLockPool::ScopePool, std::allocator<cmFileLockPool::ScopePool>>::_Vector_impl_data" }
%"struct.std::_Vector_base<cmFileLockPool::ScopePool, std::allocator<cmFileLockPool::ScopePool>>::_Vector_impl_data" = type { ptr, ptr, ptr }
%"class.cmFileLockPool::ScopePool" = type { %"class.std::vector.607" }
%"class.std::vector.607" = type { %"struct.std::_Vector_base.608" }
%"struct.std::_Vector_base.608" = type { %"struct.std::_Vector_base<cmFileLock, std::allocator<cmFileLock>>::_Vector_impl" }
%"struct.std::_Vector_base<cmFileLock, std::allocator<cmFileLock>>::_Vector_impl" = type { %"struct.std::_Vector_base<cmFileLock, std::allocator<cmFileLock>>::_Vector_impl_data" }
%"struct.std::_Vector_base<cmFileLock, std::allocator<cmFileLock>>::_Vector_impl_data" = type { ptr, ptr, ptr }
%"class.cmsys::Status" = type { i32, %union.anon.727 }
%union.anon.727 = type { i32 }
%class.cmGlobalGenerator = type <{ ptr, %"class.std::chrono::duration", %"class.std::__cxx11::basic_string", i64, %"class.std::__cxx11::basic_string", %"class.std::__cxx11::basic_string", ptr, %"class.std::vector.490", %"class.std::vector.495", %"class.std::unique_ptr.500", ptr, %"class.std::map.508", %"class.std::set", %class.cmExportSetMap, %"class.std::map.518", %"class.std::map.518", %"class.std::map.117", %"class.std::unordered_map.435", %"class.std::unordered_map.234", %"class.std::unordered_map.523", %"class.std::unordered_map.537", %"class.std::map.551", ptr, %"class.std::map.50", %"class.std::set", %"class.std::set", %"class.std::map.117", %"class.std::map.117", %"class.std::map.117", %"class.std::map.556", %"class.std::map.117", i64, %"class.std::map.561", %"class.std::unique_ptr.566", %"class.std::vector.211", %"class.std::map.574", %"class.std::map.579", %"class.std::set", %"class.std::set", %"class.std::set", %"class.std::map.584", %"class.std::map.117", %"class.std::unordered_set", %"class.std::vector.592", %"class.std::map.597", %class.cmFileLockPool, float, i8, i8, i8, i8, i8, i8, [6 x i8] }>

; Function Attrs: mustprogress nounwind uwtable
define linkonce_odr dso_local noundef ptr @_ZNK17cmGlobalGenerator16GetCMakeInstanceEv(ptr noundef nonnull align 8 dereferenceable(1778) %0) #5 comdat align 2 {
  %2 = alloca ptr, align 8
  store ptr %0, ptr %2, align 8
  %3 = load ptr, ptr %2, align 8
  %4 = getelementptr inbounds %class.cmGlobalGenerator, ptr %3, i32 0, i32 6
  %5 = load ptr, ptr %4, align 8
  ret ptr %5
}

; Function Attrs: mustprogress uwtable
define dso_local noundef ptr @_ZNK22cmNinjaTargetGenerator18GetGlobalGeneratorEv(ptr noundef nonnull align 8 dereferenceable(240) %0) #4 align 2 {
  %2 = alloca ptr, align 8
  store ptr %0, ptr %2, align 8
  %3 = load ptr, ptr %2, align 8
  %4 = getelementptr inbounds %class.cmNinjaTargetGenerator, ptr %3, i32 0, i32 3
  %5 = load ptr, ptr %4, align 8
  %6 = call noundef ptr @_ZN21cmLocalNinjaGenerator23GetGlobalNinjaGeneratorEv(ptr noundef nonnull align 8 dereferenceable(952) %5)
  ret ptr %6
}

; Function Attrs: mustprogress uwtable
define dso_local void @_ZNK22cmNinjaTargetGenerator21EnsureDirectoryExistsERKNSt7__cxx1112basic_stringIcSt11char_traitsIcESaIcEEE(ptr noundef nonnull align 8 dereferenceable(240) %0, ptr noundef nonnull align 8 dereferenceable(32) %1) #4 align 2 personality ptr @__gxx_personality_v0 {
  %3 = alloca ptr, align 8
  %4 = alloca ptr, align 8
  %5 = alloca %"class.cmsys::Status", align 4
  %6 = alloca ptr, align 8
  %7 = alloca %"class.std::__cxx11::basic_string", align 8
  %8 = alloca ptr, align 8
  %9 = alloca i32, align 4
  %10 = alloca %"class.cmsys::Status", align 4
  store ptr %0, ptr %3, align 8
  store ptr %1, ptr %4, align 8
  %11 = load ptr, ptr %3, align 8
  %12 = load ptr, ptr %4, align 8
  %13 = call noundef zeroext i1 @_ZN5cmsys11SystemTools14FileIsFullPathERKNSt7__cxx1112basic_stringIcSt11char_traitsIcESaIcEEE(ptr noundef nonnull align 8 dereferenceable(32) %12)
  br i1 %13, label %14, label %17

14:                                               ; preds = %2
  %15 = load ptr, ptr %4, align 8
  %16 = call i64 @_ZN5cmsys11SystemTools13MakeDirectoryERKNSt7__cxx1112basic_stringIcSt11char_traitsIcESaIcEEEPKj(ptr noundef nonnull align 8 dereferenceable(32) %15, ptr noundef null)
  store i64 %16, ptr %5, align 4
  br label %33

17:                                               ; preds = %2
  %18 = call noundef ptr @_ZNK22cmNinjaTargetGenerator18GetGlobalGeneratorEv(ptr noundef nonnull align 8 dereferenceable(240) %11)
  store ptr %18, ptr %6, align 8
  %19 = load ptr, ptr %6, align 8
  %20 = call noundef ptr @_ZNK17cmGlobalGenerator16GetCMakeInstanceEv(ptr noundef nonnull align 8 dereferenceable(1778) %19)
  %21 = call noundef nonnull align 8 dereferenceable(32) ptr @_ZNK5cmake22GetHomeOutputDirectoryB5cxx11Ev(ptr noundef nonnull align 8 dereferenceable(2216) %20)
  call void @_ZNSt7__cxx1112basic_stringIcSt11char_traitsIcESaIcEEC1ERKS4_(ptr noundef nonnull align 8 dereferenceable(32) %7, ptr noundef nonnull align 8 dereferenceable(32) %21)
  %22 = load ptr, ptr %6, align 8
  invoke void @_ZN22cmGlobalNinjaGenerator34StripNinjaOutputPathPrefixAsSuffixERNSt7__cxx1112basic_stringIcSt11char_traitsIcESaIcEEE(ptr noundef nonnull align 8 dereferenceable(2808) %22, ptr noundef nonnull align 8 dereferenceable(32) %7)
          to label %23 unwind label %29

23:                                               ; preds = %17
  %24 = load ptr, ptr %4, align 8
  %25 = invoke noundef nonnull align 8 dereferenceable(32) ptr @_ZNSt7__cxx1112basic_stringIcSt11char_traitsIcESaIcEEpLERKS4_(ptr noundef nonnull align 8 dereferenceable(32) %7, ptr noundef nonnull align 8 dereferenceable(32) %24)
          to label %26 unwind label %29

26:                                               ; preds = %23
  %27 = invoke i64 @_ZN5cmsys11SystemTools13MakeDirectoryERKNSt7__cxx1112basic_stringIcSt11char_traitsIcESaIcEEEPKj(ptr noundef nonnull align 8 dereferenceable(32) %7, ptr noundef null)
          to label %28 unwind label %29

28:                                               ; preds = %26
  store i64 %27, ptr %10, align 4
  call void @_ZNSt7__cxx1112basic_stringIcSt11char_traitsIcESaIcEED1Ev(ptr noundef nonnull align 8 dereferenceable(32) %7) #3
  br label %33

29:                                               ; preds = %26, %23, %17
  %30 = landingpad { ptr, i32 }
          cleanup
  %31 = extractvalue { ptr, i32 } %30, 0
  store ptr %31, ptr %8, align 8
  %32 = extractvalue { ptr, i32 } %30, 1
  store i32 %32, ptr %9, align 4
  call void @_ZNSt7__cxx1112basic_stringIcSt11char_traitsIcESaIcEED1Ev(ptr noundef nonnull align 8 dereferenceable(32) %7) #3
  br label %34

33:                                               ; preds = %28, %14
  ret void

34:                                               ; preds = %29
  %35 = load ptr, ptr %8, align 8
  %36 = load i32, ptr %9, align 4
  %37 = insertvalue { ptr, i32 } poison, ptr %35, 0
  %38 = insertvalue { ptr, i32 } %37, i32 %36, 1
  resume { ptr, i32 } %38
}