; Function Attrs: mustprogress uwtable
define dso_local void @_ZNK22cmNinjaTargetGenerator21EnsureDirectoryExistsERKNSt7__cxx1112basic_stringIcSt11char_traitsIcESaIcEEE(ptr nocapture noundef nonnull readonly align 8 dereferenceable(240) %0, ptr noundef nonnull align 8 dereferenceable(32) %1) local_unnamed_addr #3 align 2 personality ptr @__gxx_personality_v0 {
  %3 = alloca %"class.std::__cxx11::basic_string", align 8
  %4 = tail call noundef zeroext i1 @_ZN5cmsys11SystemTools14FileIsFullPathERKNSt7__cxx1112basic_stringIcSt11char_traitsIcESaIcEEE(ptr noundef nonnull align 8 dereferenceable(32) %1)
  br i1 %4, label %5, label %7

5:                                                ; preds = %2
  %6 = tail call i64 @_ZN5cmsys11SystemTools13MakeDirectoryERKNSt7__cxx1112basic_stringIcSt11char_traitsIcESaIcEEEPKj(ptr noundef nonnull align 8 dereferenceable(32) %1, ptr noundef null)
  br label %21

7:                                                ; preds = %2
  %8 = getelementptr inbounds i8, ptr %0, i64 176
  %9 = load ptr, ptr %8, align 8
  %10 = tail call noundef ptr @_ZN21cmLocalNinjaGenerator23GetGlobalNinjaGeneratorEv(ptr noundef nonnull align 8 dereferenceable(952) %9)
  %11 = getelementptr inbounds i8, ptr %10, i64 120
  %12 = load ptr, ptr %11, align 8
  %13 = tail call noundef nonnull align 8 dereferenceable(32) ptr @_ZNK5cmake22GetHomeOutputDirectoryB5cxx11Ev(ptr noundef nonnull align 8 dereferenceable(2216) %12)
  call void @_ZNSt7__cxx1112basic_stringIcSt11char_traitsIcESaIcEEC1ERKS4_(ptr noundef nonnull align 8 dereferenceable(32) %3, ptr noundef nonnull align 8 dereferenceable(32) %13)
  invoke void @_ZN22cmGlobalNinjaGenerator34StripNinjaOutputPathPrefixAsSuffixERNSt7__cxx1112basic_stringIcSt11char_traitsIcESaIcEEE(ptr noundef nonnull align 8 dereferenceable(2808) %10, ptr noundef nonnull align 8 dereferenceable(32) %3)
          to label %14 unwind label %19

14:                                               ; preds = %7
  %15 = invoke noundef nonnull align 8 dereferenceable(32) ptr @_ZNSt7__cxx1112basic_stringIcSt11char_traitsIcESaIcEEpLERKS4_(ptr noundef nonnull align 8 dereferenceable(32) %3, ptr noundef nonnull align 8 dereferenceable(32) %1)
          to label %16 unwind label %19

16:                                               ; preds = %14
  %17 = invoke i64 @_ZN5cmsys11SystemTools13MakeDirectoryERKNSt7__cxx1112basic_stringIcSt11char_traitsIcESaIcEEEPKj(ptr noundef nonnull align 8 dereferenceable(32) %3, ptr noundef null)
          to label %18 unwind label %19

18:                                               ; preds = %16
  call void @_ZNSt7__cxx1112basic_stringIcSt11char_traitsIcESaIcEED1Ev(ptr noundef nonnull align 8 dereferenceable(32) %3) #24
  br label %21

19:                                               ; preds = %16, %14, %7
  %20 = landingpad { ptr, i32 }
          cleanup
  call void @_ZNSt7__cxx1112basic_stringIcSt11char_traitsIcESaIcEED1Ev(ptr noundef nonnull align 8 dereferenceable(32) %3) #24
  resume { ptr, i32 } %20

21:                                               ; preds = %18, %5
  ret void
}